; Function Attrs: nounwind uwtable
define range(i32 0, 2) i32 @test_str_eq(ptr noundef %0, i32 noundef %1, ptr noundef %2, ptr noundef %3, ptr noundef %4, ptr noundef %5) local_unnamed_addr #0 {
  %7 = icmp eq ptr %4, null
  %8 = icmp eq ptr %5, null
  %or.cond = and i1 %7, %8
  br i1 %or.cond, label %20, label %9

9:                                                ; preds = %6
  %or.cond3 = or i1 %7, %8
  br i1 %or.cond3, label %12, label %10

10:                                               ; preds = %9
  %11 = tail call i32 @strcmp(ptr noundef nonnull dereferenceable(1) %4, ptr noundef nonnull dereferenceable(1) %5) #10
  %.not = icmp eq i32 %11, 0
  br i1 %.not, label %20, label %.thread

12:                                               ; preds = %9
  br i1 %7, label %14, label %.thread

.thread:                                          ; preds = %10, %12
  %13 = tail call i64 @strlen(ptr noundef nonnull dereferenceable(1) %4) #10
  br label %14

14:                                               ; preds = %12, %.thread
  %15 = phi i64 [ %13, %.thread ], [ 0, %12 ]
  br i1 %8, label %18, label %16

16:                                               ; preds = %14
  %17 = tail call i64 @strlen(ptr noundef nonnull dereferenceable(1) %5) #10
  br label %18

18:                                               ; preds = %14, %16
  %19 = phi i64 [ %17, %16 ], [ 0, %14 ]
  tail call void @test_fail_string_message(ptr noundef null, ptr noundef %0, i32 noundef %1, ptr noundef nonnull @.str.44, ptr noundef %2, ptr noundef %3, ptr noundef nonnull @.str.12, ptr noundef %4, i64 noundef %15, ptr noundef %5, i64 noundef %19) #8
  br label %20

20:                                               ; preds = %10, %6, %18
  %.0 = phi i32 [ 0, %18 ], [ 1, %6 ], [ 1, %10 ]
  ret i32 %.0
}